; ModuleID = 'source-C-CXX/49/1294.cpp'
source_filename = "source-C-CXX/49/1294.cpp"
target datalayout = "e-m:e-p270:32:32-p271:32:32-p272:64:64-i64:64-f80:128-n8:16:32:64-S128"
target triple = "x86_64-pc-linux-gnu"

%"class.std::ios_base::Init" = type { i8 }
%"class.std::basic_istream" = type { i32 (...)**, i64, %"class.std::basic_ios" }
%"class.std::basic_ios" = type { %"class.std::ios_base", %"class.std::basic_ostream"*, i8, i8, %"class.std::basic_streambuf"*, %"class.std::ctype"*, %"class.std::num_put"*, %"class.std::num_get"* }
%"class.std::ios_base" = type { i32 (...)**, i64, i64, i32, i32, i32, %"struct.std::ios_base::_Callback_list"*, %"struct.std::ios_base::_Words", [8 x %"struct.std::ios_base::_Words"], i32, %"struct.std::ios_base::_Words"*, %"class.std::locale" }
%"struct.std::ios_base::_Callback_list" = type { %"struct.std::ios_base::_Callback_list"*, void (i32, %"class.std::ios_base"*, i32)*, i32, i32 }
%"struct.std::ios_base::_Words" = type { i8*, i64 }
%"class.std::locale" = type { %"class.std::locale::_Impl"* }
%"class.std::locale::_Impl" = type { i32, %"class.std::locale::facet"**, i64, %"class.std::locale::facet"**, i8** }
%"class.std::locale::facet" = type <{ i32 (...)**, i32, [4 x i8] }>
%"class.std::basic_ostream" = type { i32 (...)**, %"class.std::basic_ios" }
%"class.std::basic_streambuf" = type { i32 (...)**, i8*, i8*, i8*, i8*, i8*, i8*, %"class.std::locale" }
%"class.std::ctype" = type <{ %"class.std::locale::facet.base", [4 x i8], %struct.__locale_struct*, i8, [7 x i8], i32*, i32*, i16*, i8, [256 x i8], [256 x i8], i8, [6 x i8] }>
%"class.std::locale::facet.base" = type <{ i32 (...)**, i32 }>
%struct.__locale_struct = type { [13 x %struct.__locale_data*], i16*, i32*, i32*, [13 x i8*] }
%struct.__locale_data = type opaque
%"class.std::num_put" = type { %"class.std::locale::facet.base", [4 x i8] }
%"class.std::num_get" = type { %"class.std::locale::facet.base", [4 x i8] }

@_ZStL8__ioinit = internal global %"class.std::ios_base::Init" zeroinitializer, align 1
@__dso_handle = external hidden global i8
@_ZSt3cin = external global %"class.std::basic_istream", align 8
@_ZSt4cout = external global %"class.std::basic_ostream", align 8
@llvm.global_ctors = appending global [1 x { i32, void ()*, i8* }] [{ i32, void ()*, i8* } { i32 65535, void ()* @_GLOBAL__sub_I_1294.cpp, i8* null }]

declare void @_ZNSt8ios_base4InitC1Ev(%"class.std::ios_base::Init"* nonnull align 1 dereferenceable(1)) unnamed_addr #0

; Function Attrs: nounwind
declare void @_ZNSt8ios_base4InitD1Ev(%"class.std::ios_base::Init"* nonnull align 1 dereferenceable(1)) unnamed_addr #1

; Function Attrs: nofree nounwind
declare i32 @__cxa_atexit(void (i8*)*, i8*, i8*) local_unnamed_addr #2

; Function Attrs: mustprogress norecurse sspstrong uwtable
define dso_local i32 @main() local_unnamed_addr #3 {
  %1 = alloca i32, align 4
  %2 = alloca [13 x i32], align 16
  %3 = bitcast i32* %1 to i8*
  call void @llvm.lifetime.start.p0i8(i64 4, i8* nonnull %3) #7
  %4 = bitcast [13 x i32]* %2 to i8*
  call void @llvm.lifetime.start.p0i8(i64 52, i8* nonnull %4) #7
  %5 = call nonnull align 8 dereferenceable(16) %"class.std::basic_istream"* @_ZNSirsERi(%"class.std::basic_istream"* nonnull align 8 dereferenceable(16) @_ZSt3cin, i32* nonnull align 4 dereferenceable(4) %1)
  %6 = load i32, i32* %1, align 4, !tbaa !5
  %7 = add nsw i32 %6, 12
  %8 = srem i32 %7, 7
  %9 = getelementptr inbounds [13 x i32], [13 x i32]* %2, i64 0, i64 1
  store i32 %8, i32* %9, align 4, !tbaa !5
  %10 = add nsw i32 %6, 3
  %11 = srem i32 %10, 7
  %12 = trunc i32 %11 to i8
  %13 = add nsw i8 %12, 12
  %14 = urem i8 %13, 7
  %15 = zext i8 %14 to i32
  %16 = getelementptr inbounds [13 x i32], [13 x i32]* %2, i64 0, i64 2
  store i32 %15, i32* %16, align 8, !tbaa !5
  %17 = getelementptr inbounds [13 x i32], [13 x i32]* %2, i64 0, i64 3
  store i32 %15, i32* %17, align 4, !tbaa !5
  %18 = trunc i32 %11 to i8
  %19 = add i8 %18, 3
  %20 = srem i8 %19, 7
  %21 = add nsw i8 %20, 12
  %22 = urem i8 %21, 7
  %23 = zext i8 %22 to i32
  %24 = getelementptr inbounds [13 x i32], [13 x i32]* %2, i64 0, i64 4
  store i32 %23, i32* %24, align 16, !tbaa !5
  %25 = add nsw i8 %20, 2
  %26 = srem i8 %25, 7
  %27 = add nsw i8 %26, 12
  %28 = urem i8 %27, 7
  %29 = zext i8 %28 to i32
  %30 = getelementptr inbounds [13 x i32], [13 x i32]* %2, i64 0, i64 5
  store i32 %29, i32* %30, align 4, !tbaa !5
  %31 = add nsw i8 %26, 3
  %32 = urem i8 %31, 7
  %33 = add nuw nsw i8 %32, 12
  %34 = urem i8 %33, 7
  %35 = zext i8 %34 to i32
  %36 = getelementptr inbounds [13 x i32], [13 x i32]* %2, i64 0, i64 6
  store i32 %35, i32* %36, align 8, !tbaa !5
  %37 = add nuw nsw i8 %32, 2
  %38 = urem i8 %37, 7
  %39 = add nuw nsw i8 %38, 12
  %40 = urem i8 %39, 7
  %41 = zext i8 %40 to i32
  %42 = getelementptr inbounds [13 x i32], [13 x i32]* %2, i64 0, i64 7
  store i32 %41, i32* %42, align 4, !tbaa !5
  %43 = add nuw nsw i8 %38, 3
  %44 = urem i8 %43, 7
  %45 = add nuw nsw i8 %44, 12
  %46 = urem i8 %45, 7
  %47 = zext i8 %46 to i32
  %48 = getelementptr inbounds [13 x i32], [13 x i32]* %2, i64 0, i64 8
  store i32 %47, i32* %48, align 16, !tbaa !5
  %49 = add nuw nsw i8 %44, 3
  %50 = urem i8 %49, 7
  %51 = add nuw nsw i8 %50, 12
  %52 = urem i8 %51, 7
  %53 = zext i8 %52 to i32
  %54 = getelementptr inbounds [13 x i32], [13 x i32]* %2, i64 0, i64 9
  store i32 %53, i32* %54, align 4, !tbaa !5
  %55 = add nuw nsw i8 %50, 2
  %56 = urem i8 %55, 7
  %57 = add nuw nsw i8 %56, 12
  %58 = urem i8 %57, 7
  %59 = zext i8 %58 to i32
  %60 = getelementptr inbounds [13 x i32], [13 x i32]* %2, i64 0, i64 10
  store i32 %59, i32* %60, align 8, !tbaa !5
  %61 = add nuw nsw i8 %56, 3
  %62 = urem i8 %61, 7
  %63 = add nuw nsw i8 %62, 12
  %64 = urem i8 %63, 7
  %65 = zext i8 %64 to i32
  %66 = getelementptr inbounds [13 x i32], [13 x i32]* %2, i64 0, i64 11
  store i32 %65, i32* %66, align 4, !tbaa !5
  %67 = add nuw nsw i8 %62, 2
  %68 = urem i8 %67, 7
  %69 = add nuw nsw i8 %68, 12
  %70 = urem i8 %69, 7
  %71 = zext i8 %70 to i32
  %72 = getelementptr inbounds [13 x i32], [13 x i32]* %2, i64 0, i64 12
  store i32 %71, i32* %72, align 16, !tbaa !5
  br label %73

73:                                               ; preds = %112, %0
  %74 = phi i32 [ %8, %0 ], [ %114, %112 ]
  %75 = phi i64 [ 1, %0 ], [ %110, %112 ]
  %76 = icmp eq i32 %74, 5
  br i1 %76, label %77, label %109

77:                                               ; preds = %73
  %78 = trunc i64 %75 to i32
  %79 = call nonnull align 8 dereferenceable(8) %"class.std::basic_ostream"* @_ZNSolsEi(%"class.std::basic_ostream"* nonnull align 8 dereferenceable(8) @_ZSt4cout, i32 %78)
  %80 = bitcast %"class.std::basic_ostream"* %79 to i8**
  %81 = load i8*, i8** %80, align 8, !tbaa !9
  %82 = getelementptr i8, i8* %81, i64 -24
  %83 = bitcast i8* %82 to i64*
  %84 = load i64, i64* %83, align 8
  %85 = bitcast %"class.std::basic_ostream"* %79 to i8*
  %86 = add nsw i64 %84, 240
  %87 = getelementptr inbounds i8, i8* %85, i64 %86
  %88 = bitcast i8* %87 to %"class.std::ctype"**
  %89 = load %"class.std::ctype"*, %"class.std::ctype"** %88, align 8, !tbaa !11
  %90 = icmp eq %"class.std::ctype"* %89, null
  br i1 %90, label %91, label %92

91:                                               ; preds = %77
  call void @_ZSt16__throw_bad_castv() #8
  unreachable

92:                                               ; preds = %77
  %93 = getelementptr inbounds %"class.std::ctype", %"class.std::ctype"* %89, i64 0, i32 8
  %94 = load i8, i8* %93, align 8, !tbaa !15
  %95 = icmp eq i8 %94, 0
  br i1 %95, label %99, label %96

96:                                               ; preds = %92
  %97 = getelementptr inbounds %"class.std::ctype", %"class.std::ctype"* %89, i64 0, i32 9, i64 10
  %98 = load i8, i8* %97, align 1, !tbaa !17
  br label %105

99:                                               ; preds = %92
  call void @_ZNKSt5ctypeIcE13_M_widen_initEv(%"class.std::ctype"* nonnull align 8 dereferenceable(570) %89)
  %100 = bitcast %"class.std::ctype"* %89 to i8 (%"class.std::ctype"*, i8)***
  %101 = load i8 (%"class.std::ctype"*, i8)**, i8 (%"class.std::ctype"*, i8)*** %100, align 8, !tbaa !9
  %102 = getelementptr inbounds i8 (%"class.std::ctype"*, i8)*, i8 (%"class.std::ctype"*, i8)** %101, i64 6
  %103 = load i8 (%"class.std::ctype"*, i8)*, i8 (%"class.std::ctype"*, i8)** %102, align 8
  %104 = call signext i8 %103(%"class.std::ctype"* nonnull align 8 dereferenceable(570) %89, i8 signext 10)
  br label %105

105:                                              ; preds = %96, %99
  %106 = phi i8 [ %98, %96 ], [ %104, %99 ]
  %107 = call nonnull align 8 dereferenceable(8) %"class.std::basic_ostream"* @_ZNSo3putEc(%"class.std::basic_ostream"* nonnull align 8 dereferenceable(8) %79, i8 signext %106)
  %108 = call nonnull align 8 dereferenceable(8) %"class.std::basic_ostream"* @_ZNSo5flushEv(%"class.std::basic_ostream"* nonnull align 8 dereferenceable(8) %107)
  br label %109

109:                                              ; preds = %73, %105
  %110 = add nuw nsw i64 %75, 1
  %111 = icmp eq i64 %110, 13
  br i1 %111, label %115, label %112, !llvm.loop !18

112:                                              ; preds = %109
  %113 = getelementptr inbounds [13 x i32], [13 x i32]* %2, i64 0, i64 %110
  %114 = load i32, i32* %113, align 4, !tbaa !5
  br label %73

115:                                              ; preds = %109
  call void @llvm.lifetime.end.p0i8(i64 52, i8* nonnull %4) #7
  call void @llvm.lifetime.end.p0i8(i64 4, i8* nonnull %3) #7
  ret i32 0
}

; Function Attrs: argmemonly mustprogress nofree nosync nounwind willreturn
declare void @llvm.lifetime.start.p0i8(i64 immarg, i8* nocapture) #4

declare nonnull align 8 dereferenceable(16) %"class.std::basic_istream"* @_ZNSirsERi(%"class.std::basic_istream"* nonnull align 8 dereferenceable(16), i32* nonnull align 4 dereferenceable(4)) local_unnamed_addr #0

declare nonnull align 8 dereferenceable(8) %"class.std::basic_ostream"* @_ZNSolsEi(%"class.std::basic_ostream"* nonnull align 8 dereferenceable(8), i32) local_unnamed_addr #0

; Function Attrs: argmemonly mustprogress nofree nosync nounwind willreturn
declare void @llvm.lifetime.end.p0i8(i64 immarg, i8* nocapture) #4

declare nonnull align 8 dereferenceable(8) %"class.std::basic_ostream"* @_ZNSo3putEc(%"class.std::basic_ostream"* nonnull align 8 dereferenceable(8), i8 signext) local_unnamed_addr #0

declare nonnull align 8 dereferenceable(8) %"class.std::basic_ostream"* @_ZNSo5flushEv(%"class.std::basic_ostream"* nonnull align 8 dereferenceable(8)) local_unnamed_addr #0

; Function Attrs: noreturn
declare void @_ZSt16__throw_bad_castv() local_unnamed_addr #5

declare void @_ZNKSt5ctypeIcE13_M_widen_initEv(%"class.std::ctype"* nonnull align 8 dereferenceable(570)) local_unnamed_addr #0

; Function Attrs: sspstrong uwtable
define internal void @_GLOBAL__sub_I_1294.cpp() #6 section ".text.startup" {
  tail call void @_ZNSt8ios_base4InitC1Ev(%"class.std::ios_base::Init"* nonnull align 1 dereferenceable(1) @_ZStL8__ioinit)
  %1 = tail call i32 @__cxa_atexit(void (i8*)* bitcast (void (%"class.std::ios_base::Init"*)* @_ZNSt8ios_base4InitD1Ev to void (i8*)*), i8* getelementptr inbounds (%"class.std::ios_base::Init", %"class.std::ios_base::Init"* @_ZStL8__ioinit, i64 0, i32 0), i8* nonnull @__dso_handle) #7
  ret void
}


!llvm.module.flags = !{!0, !1, !2, !3}
!llvm.ident = !{!4}

!0 = !{i32 1, !"wchar_size", i32 4}
!1 = !{i32 7, !"PIC Level", i32 2}
!2 = !{i32 7, !"PIE Level", i32 2}
!3 = !{i32 7, !"uwtable", i32 1}
!4 = !{!"clang version 13.0.0"}
!5 = !{!6, !6, i64 0}
!6 = !{!"int", !7, i64 0}
!7 = !{!"omnipotent char", !8, i64 0}
!8 = !{!"Simple C++ TBAA"}
!9 = !{!10, !10, i64 0}
!10 = !{!"vtable pointer", !8, i64 0}
!11 = !{!12, !13, i64 240}
!12 = !{!"_ZTSSt9basic_iosIcSt11char_traitsIcEE", !13, i64 216, !7, i64 224, !14, i64 225, !13, i64 232, !13, i64 240, !13, i64 248, !13, i64 256}
!13 = !{!"any pointer", !7, i64 0}
!14 = !{!"bool", !7, i64 0}
!15 = !{!16, !7, i64 56}
!16 = !{!"_ZTSSt5ctypeIcE", !13, i64 16, !14, i64 24, !13, i64 32, !13, i64 40, !13, i64 48, !7, i64 56, !7, i64 57, !7, i64 313, !7, i64 569}
!17 = !{!7, !7, i64 0}
!18 = distinct !{!18, !19}
!19 = !{!"llvm.loop.mustprogress"}
